; Function Attrs: mustprogress nounwind uwtable
define internal fastcc void @_ZL16register_commandIPKcEvP24TypedMethodOptionMatcher18CompileCommandEnumT_(ptr noundef %0, i32 noundef %1, ptr noundef %2) unnamed_addr #2 {
  switch i32 %1, label %.split [
    i32 2, label %4
    i32 6, label %24
  ]

4:                                                ; preds = %3
  %5 = load i8, ptr @LogCompilation, align 1
  %6 = trunc i8 %5 to i1
  br i1 %6, label %.split.thread, label %7

7:                                                ; preds = %4
  %8 = load ptr, ptr @tty, align 8
  tail call void (ptr, ptr, ...) @_ZN12outputStream8print_crEPKcz(ptr noundef nonnull align 8 dereferenceable(56) %8, ptr noundef nonnull @.str.134) #19
  %9 = load ptr, ptr @tty, align 8
  tail call void (ptr, ptr, ...) @_ZN12outputStream8print_crEPKcz(ptr noundef nonnull align 8 dereferenceable(56) %9, ptr noundef nonnull @.str.135) #19
  br label %.split.thread

.split.thread:                                    ; preds = %4, %7
  %10 = load ptr, ptr @_ZL11option_list, align 8
  %11 = getelementptr inbounds i8, ptr %0, i64 32
  store ptr %10, ptr %11, align 8
  %12 = getelementptr inbounds i8, ptr %0, i64 40
  store i32 2, ptr %12, align 8
  %13 = tail call noundef ptr @_ZN2os16strdup_check_oomEPKc8MEMFLAGS(ptr noundef %2, i8 noundef zeroext 9) #19
  %14 = getelementptr inbounds i8, ptr %0, i64 48
  store ptr %13, ptr %14, align 8
  store ptr %0, ptr @_ZL11option_list, align 8
  br label %_ZL21command_set_in_filter18CompileCommandEnum.exit

.split:                                           ; preds = %3
  %15 = load ptr, ptr @_ZL11option_list, align 8
  %16 = getelementptr inbounds i8, ptr %0, i64 32
  store ptr %15, ptr %16, align 8
  %17 = getelementptr inbounds i8, ptr %0, i64 40
  store i32 %1, ptr %17, align 8
  %18 = tail call noundef ptr @_ZN2os16strdup_check_oomEPKc8MEMFLAGS(ptr noundef %2, i8 noundef zeroext 9) #19
  %19 = getelementptr inbounds i8, ptr %0, i64 48
  store ptr %18, ptr %19, align 8
  store ptr %0, ptr @_ZL11option_list, align 8
  %20 = and i32 %1, -2
  %switch = icmp eq i32 %20, 4
  br i1 %switch, label %_ZL21command_set_in_filter18CompileCommandEnum.exit, label %21

21:                                               ; preds = %.split
  store i1 true, ptr @_ZL7any_set, align 1
  br label %_ZL21command_set_in_filter18CompileCommandEnum.exit

_ZL21command_set_in_filter18CompileCommandEnum.exit: ; preds = %.split, %.split.thread, %21
  %22 = sext i32 %1 to i64
  %23 = getelementptr inbounds [41 x i8], ptr @_ZL13option_filter, i64 0, i64 %22
  br label %44

24:                                               ; preds = %3
  %25 = load i8, ptr @UnlockExperimentalVMOptions, align 1
  %26 = trunc i8 %25 to i1
  br i1 %26, label %.split10, label %32

.split10:                                         ; preds = %24
  %27 = load ptr, ptr @_ZL11option_list, align 8
  %28 = getelementptr inbounds i8, ptr %0, i64 32
  store ptr %27, ptr %28, align 8
  %29 = getelementptr inbounds i8, ptr %0, i64 40
  store i32 6, ptr %29, align 8
  %30 = tail call noundef ptr @_ZN2os16strdup_check_oomEPKc8MEMFLAGS(ptr noundef %2, i8 noundef zeroext 9) #19
  %31 = getelementptr inbounds i8, ptr %0, i64 48
  store ptr %30, ptr %31, align 8
  store ptr %0, ptr @_ZL11option_list, align 8
  store i1 true, ptr @_ZL7any_set, align 1
  br label %44

32:                                               ; preds = %24
  tail call void (ptr, ...) @_Z7warningPKcz(ptr noundef nonnull @.str.136) #19
  %33 = icmp eq ptr %0, null
  br i1 %33, label %53, label %34

34:                                               ; preds = %32
  %35 = getelementptr inbounds i8, ptr %0, i64 40
  %36 = load i32, ptr %35, align 8
  %37 = sext i32 %36 to i64
  %38 = getelementptr inbounds [41 x i32], ptr @_ZL12option_types, i64 0, i64 %37
  %39 = load i32, ptr %38, align 4
  %40 = add i32 %39, -3
  %or.cond.i = icmp ult i32 %40, 2
  br i1 %or.cond.i, label %41, label %_ZN24TypedMethodOptionMatcherD2Ev.exit

41:                                               ; preds = %34
  %42 = getelementptr inbounds i8, ptr %0, i64 48
  %43 = load ptr, ptr %42, align 8
  tail call void @_ZN2os4freeEPv(ptr noundef %43) #19
  br label %_ZN24TypedMethodOptionMatcherD2Ev.exit

_ZN24TypedMethodOptionMatcherD2Ev.exit:           ; preds = %34, %41
  tail call void @_ZN13MethodMatcherD2Ev(ptr noundef nonnull align 8 dereferenceable(32) %0) #19
  tail call void @_Z8FreeHeapPv(ptr noundef nonnull %0) #19
  br label %53

44:                                               ; preds = %.split10, %_ZL21command_set_in_filter18CompileCommandEnum.exit
  %.sink = phi ptr [ getelementptr inbounds (i8, ptr @_ZL13option_filter, i64 6), %.split10 ], [ %23, %_ZL21command_set_in_filter18CompileCommandEnum.exit ]
  store i8 1, ptr %.sink, align 1
  %45 = load i8, ptr @_ZN14CompilerOracle6_quietE, align 1
  %46 = trunc i8 %45 to i1
  br i1 %46, label %53, label %47

47:                                               ; preds = %44
  %48 = tail call noundef i64 @_ZN9ttyLocker8hold_ttyEv() #19
  %49 = load ptr, ptr @tty, align 8
  %50 = sext i32 %1 to i64
  %51 = getelementptr inbounds [41 x ptr], ptr @_ZL12option_names, i64 0, i64 %50
  %52 = load ptr, ptr %51, align 8
  tail call void (ptr, ptr, ...) @_ZN12outputStream5printEPKcz(ptr noundef nonnull align 8 dereferenceable(56) %49, ptr noundef nonnull @.str.137, ptr noundef %52) #19
  tail call void @_ZN24TypedMethodOptionMatcher5printEv(ptr noundef nonnull align 8 dereferenceable(56) %0)
  tail call void @_ZN9ttyLocker11release_ttyEl(i64 noundef %48) #19
  br label %53

53:                                               ; preds = %44, %47, %32, %_ZN24TypedMethodOptionMatcherD2Ev.exit
  ret void
}